
P9tjuino.elf:     file format elf32-avr

Sections:
Idx Name          Size      VMA       LMA       File off  Algn
  0 .data         00000034  00800200  00000336  000003ca  2**0
                  CONTENTS, ALLOC, LOAD, DATA
  1 .text         00000336  00000000  00000000  00000094  2**1
                  CONTENTS, ALLOC, LOAD, READONLY, CODE
  2 .bss          00000002  00800234  00800234  000003fe  2**0
                  ALLOC
  3 .comment      00000030  00000000  00000000  000003fe  2**0
                  CONTENTS, READONLY
  4 .note.gnu.avr.deviceinfo 00000040  00000000  00000000  00000430  2**2
                  CONTENTS, READONLY
  5 .debug_aranges 000000d8  00000000  00000000  00000470  2**0
                  CONTENTS, READONLY, DEBUGGING
  6 .debug_info   00001295  00000000  00000000  00000548  2**0
                  CONTENTS, READONLY, DEBUGGING
  7 .debug_abbrev 00000ea9  00000000  00000000  000017dd  2**0
                  CONTENTS, READONLY, DEBUGGING
  8 .debug_line   00000751  00000000  00000000  00002686  2**0
                  CONTENTS, READONLY, DEBUGGING
  9 .debug_frame  000001d0  00000000  00000000  00002dd8  2**2
                  CONTENTS, READONLY, DEBUGGING
 10 .debug_str    00000621  00000000  00000000  00002fa8  2**0
                  CONTENTS, READONLY, DEBUGGING
 11 .debug_loc    000006b3  00000000  00000000  000035c9  2**0
                  CONTENTS, READONLY, DEBUGGING
 12 .debug_ranges 00000098  00000000  00000000  00003c7c  2**0
                  CONTENTS, READONLY, DEBUGGING

Disassembly of section .text:

00000000 <__vectors>:
   0:	71 c0       	rjmp	.+226    	; 0xe4 <__ctors_end>
   2:	00 00       	nop
   4:	8c c0       	rjmp	.+280    	; 0x11e <__bad_interrupt>
   6:	00 00       	nop
   8:	8a c0       	rjmp	.+276    	; 0x11e <__bad_interrupt>
   a:	00 00       	nop
   c:	88 c0       	rjmp	.+272    	; 0x11e <__bad_interrupt>
   e:	00 00       	nop
  10:	86 c0       	rjmp	.+268    	; 0x11e <__bad_interrupt>
  12:	00 00       	nop
  14:	84 c0       	rjmp	.+264    	; 0x11e <__bad_interrupt>
  16:	00 00       	nop
  18:	82 c0       	rjmp	.+260    	; 0x11e <__bad_interrupt>
  1a:	00 00       	nop
  1c:	80 c0       	rjmp	.+256    	; 0x11e <__bad_interrupt>
  1e:	00 00       	nop
  20:	7e c0       	rjmp	.+252    	; 0x11e <__bad_interrupt>
  22:	00 00       	nop
  24:	7c c0       	rjmp	.+248    	; 0x11e <__bad_interrupt>
  26:	00 00       	nop
  28:	7a c0       	rjmp	.+244    	; 0x11e <__bad_interrupt>
  2a:	00 00       	nop
  2c:	78 c0       	rjmp	.+240    	; 0x11e <__bad_interrupt>
  2e:	00 00       	nop
  30:	76 c0       	rjmp	.+236    	; 0x11e <__bad_interrupt>
  32:	00 00       	nop
  34:	1f c1       	rjmp	.+574    	; 0x274 <__vector_13>
  36:	00 00       	nop
  38:	72 c0       	rjmp	.+228    	; 0x11e <__bad_interrupt>
  3a:	00 00       	nop
  3c:	70 c0       	rjmp	.+224    	; 0x11e <__bad_interrupt>
  3e:	00 00       	nop
  40:	6e c0       	rjmp	.+220    	; 0x11e <__bad_interrupt>
  42:	00 00       	nop
  44:	6c c0       	rjmp	.+216    	; 0x11e <__bad_interrupt>
  46:	00 00       	nop
  48:	6a c0       	rjmp	.+212    	; 0x11e <__bad_interrupt>
  4a:	00 00       	nop
  4c:	68 c0       	rjmp	.+208    	; 0x11e <__bad_interrupt>
  4e:	00 00       	nop
  50:	66 c0       	rjmp	.+204    	; 0x11e <__bad_interrupt>
  52:	00 00       	nop
  54:	64 c0       	rjmp	.+200    	; 0x11e <__bad_interrupt>
  56:	00 00       	nop
  58:	62 c0       	rjmp	.+196    	; 0x11e <__bad_interrupt>
  5a:	00 00       	nop
  5c:	60 c0       	rjmp	.+192    	; 0x11e <__bad_interrupt>
  5e:	00 00       	nop
  60:	5e c0       	rjmp	.+188    	; 0x11e <__bad_interrupt>
  62:	00 00       	nop
  64:	5c c0       	rjmp	.+184    	; 0x11e <__bad_interrupt>
  66:	00 00       	nop
  68:	5a c0       	rjmp	.+180    	; 0x11e <__bad_interrupt>
  6a:	00 00       	nop
  6c:	58 c0       	rjmp	.+176    	; 0x11e <__bad_interrupt>
  6e:	00 00       	nop
  70:	56 c0       	rjmp	.+172    	; 0x11e <__bad_interrupt>
  72:	00 00       	nop
  74:	54 c0       	rjmp	.+168    	; 0x11e <__bad_interrupt>
  76:	00 00       	nop
  78:	52 c0       	rjmp	.+164    	; 0x11e <__bad_interrupt>
  7a:	00 00       	nop
  7c:	50 c0       	rjmp	.+160    	; 0x11e <__bad_interrupt>
  7e:	00 00       	nop
  80:	4e c0       	rjmp	.+156    	; 0x11e <__bad_interrupt>
  82:	00 00       	nop
  84:	4c c0       	rjmp	.+152    	; 0x11e <__bad_interrupt>
  86:	00 00       	nop
  88:	4a c0       	rjmp	.+148    	; 0x11e <__bad_interrupt>
  8a:	00 00       	nop
  8c:	48 c0       	rjmp	.+144    	; 0x11e <__bad_interrupt>
  8e:	00 00       	nop
  90:	46 c0       	rjmp	.+140    	; 0x11e <__bad_interrupt>
  92:	00 00       	nop
  94:	44 c0       	rjmp	.+136    	; 0x11e <__bad_interrupt>
  96:	00 00       	nop
  98:	42 c0       	rjmp	.+132    	; 0x11e <__bad_interrupt>
  9a:	00 00       	nop
  9c:	40 c0       	rjmp	.+128    	; 0x11e <__bad_interrupt>
  9e:	00 00       	nop
  a0:	3e c0       	rjmp	.+124    	; 0x11e <__bad_interrupt>
  a2:	00 00       	nop
  a4:	3c c0       	rjmp	.+120    	; 0x11e <__bad_interrupt>
  a6:	00 00       	nop
  a8:	3a c0       	rjmp	.+116    	; 0x11e <__bad_interrupt>
  aa:	00 00       	nop
  ac:	38 c0       	rjmp	.+112    	; 0x11e <__bad_interrupt>
  ae:	00 00       	nop
  b0:	36 c0       	rjmp	.+108    	; 0x11e <__bad_interrupt>
  b2:	00 00       	nop
  b4:	34 c0       	rjmp	.+104    	; 0x11e <__bad_interrupt>
  b6:	00 00       	nop
  b8:	32 c0       	rjmp	.+100    	; 0x11e <__bad_interrupt>
  ba:	00 00       	nop
  bc:	30 c0       	rjmp	.+96     	; 0x11e <__bad_interrupt>
  be:	00 00       	nop
  c0:	2e c0       	rjmp	.+92     	; 0x11e <__bad_interrupt>
  c2:	00 00       	nop
  c4:	2c c0       	rjmp	.+88     	; 0x11e <__bad_interrupt>
  c6:	00 00       	nop
  c8:	2a c0       	rjmp	.+84     	; 0x11e <__bad_interrupt>
  ca:	00 00       	nop
  cc:	28 c0       	rjmp	.+80     	; 0x11e <__bad_interrupt>
  ce:	00 00       	nop
  d0:	26 c0       	rjmp	.+76     	; 0x11e <__bad_interrupt>
  d2:	00 00       	nop
  d4:	24 c0       	rjmp	.+72     	; 0x11e <__bad_interrupt>
  d6:	00 00       	nop
  d8:	22 c0       	rjmp	.+68     	; 0x11e <__bad_interrupt>
  da:	00 00       	nop
  dc:	20 c0       	rjmp	.+64     	; 0x11e <__bad_interrupt>
  de:	00 00       	nop
  e0:	1e c0       	rjmp	.+60     	; 0x11e <__bad_interrupt>
	...

000000e4 <__ctors_end>:
  e4:	11 24       	eor	r1, r1
  e6:	1f be       	out	0x3f, r1	; 63
  e8:	cf ef       	ldi	r28, 0xFF	; 255
  ea:	d1 e2       	ldi	r29, 0x21	; 33
  ec:	de bf       	out	0x3e, r29	; 62
  ee:	cd bf       	out	0x3d, r28	; 61

000000f0 <__do_copy_data>:
  f0:	12 e0       	ldi	r17, 0x02	; 2
  f2:	a0 e0       	ldi	r26, 0x00	; 0
  f4:	b2 e0       	ldi	r27, 0x02	; 2
  f6:	e6 e3       	ldi	r30, 0x36	; 54
  f8:	f3 e0       	ldi	r31, 0x03	; 3
  fa:	00 e0       	ldi	r16, 0x00	; 0
  fc:	0b bf       	out	0x3b, r16	; 59
  fe:	02 c0       	rjmp	.+4      	; 0x104 <__do_copy_data+0x14>
 100:	07 90       	elpm	r0, Z+
 102:	0d 92       	st	X+, r0
 104:	a4 33       	cpi	r26, 0x34	; 52
 106:	b1 07       	cpc	r27, r17
 108:	d9 f7       	brne	.-10     	; 0x100 <__do_copy_data+0x10>

0000010a <__do_clear_bss>:
 10a:	22 e0       	ldi	r18, 0x02	; 2
 10c:	a4 e3       	ldi	r26, 0x34	; 52
 10e:	b2 e0       	ldi	r27, 0x02	; 2
 110:	01 c0       	rjmp	.+2      	; 0x114 <.do_clear_bss_start>

00000112 <.do_clear_bss_loop>:
 112:	1d 92       	st	X+, r1

00000114 <.do_clear_bss_start>:
 114:	a6 33       	cpi	r26, 0x36	; 54
 116:	b2 07       	cpc	r27, r18
 118:	e1 f7       	brne	.-8      	; 0x112 <.do_clear_bss_loop>
 11a:	6b d0       	rcall	.+214    	; 0x1f2 <main>
 11c:	0a c1       	rjmp	.+532    	; 0x332 <_exit>

0000011e <__bad_interrupt>:
 11e:	70 cf       	rjmp	.-288    	; 0x0 <__vectors>

00000120 <Clock_Ini>:
BYTE min=59; /*minutos*/
BYTE horas=23; /*horas*/

void Clock_Ini(BYTE hora, BYTE minutos, BYTE segundos)
{
	seg=segundos;
 120:	40 93 02 02 	sts	0x0202, r20	; 0x800202 <seg>
	min=minutos;
 124:	60 93 01 02 	sts	0x0201, r22	; 0x800201 <min>
	horas=hora;
 128:	80 93 00 02 	sts	0x0200, r24	; 0x800200 <__data_start>
 12c:	08 95       	ret

0000012e <Clock_Update>:
}
void Clock_Update( void ){
	seg=(++seg%60);
 12e:	90 91 02 02 	lds	r25, 0x0202	; 0x800202 <seg>
 132:	9f 5f       	subi	r25, 0xFF	; 255
 134:	89 e8       	ldi	r24, 0x89	; 137
 136:	98 9f       	mul	r25, r24
 138:	81 2d       	mov	r24, r1
 13a:	11 24       	eor	r1, r1
 13c:	82 95       	swap	r24
 13e:	86 95       	lsr	r24
 140:	87 70       	andi	r24, 0x07	; 7
 142:	2c e3       	ldi	r18, 0x3C	; 60
 144:	82 9f       	mul	r24, r18
 146:	90 19       	sub	r25, r0
 148:	11 24       	eor	r1, r1
 14a:	90 93 02 02 	sts	0x0202, r25	; 0x800202 <seg>
	if(seg == 0)
 14e:	91 11       	cpse	r25, r1
 150:	21 c0       	rjmp	.+66     	; 0x194 <Clock_Update+0x66>
	{
		min=(++min%60);
 152:	90 91 01 02 	lds	r25, 0x0201	; 0x800201 <min>
 156:	9f 5f       	subi	r25, 0xFF	; 255
 158:	89 e8       	ldi	r24, 0x89	; 137
 15a:	98 9f       	mul	r25, r24
 15c:	81 2d       	mov	r24, r1
 15e:	11 24       	eor	r1, r1
 160:	82 95       	swap	r24
 162:	86 95       	lsr	r24
 164:	87 70       	andi	r24, 0x07	; 7
 166:	2c e3       	ldi	r18, 0x3C	; 60
 168:	82 9f       	mul	r24, r18
 16a:	90 19       	sub	r25, r0
 16c:	11 24       	eor	r1, r1
 16e:	90 93 01 02 	sts	0x0201, r25	; 0x800201 <min>
		if(min == 0)
 172:	91 11       	cpse	r25, r1
 174:	0f c0       	rjmp	.+30     	; 0x194 <Clock_Update+0x66>
		{
			horas=(++horas%24);
 176:	80 91 00 02 	lds	r24, 0x0200	; 0x800200 <__data_start>
 17a:	8f 5f       	subi	r24, 0xFF	; 255
 17c:	9b ea       	ldi	r25, 0xAB	; 171
 17e:	89 9f       	mul	r24, r25
 180:	91 2d       	mov	r25, r1
 182:	11 24       	eor	r1, r1
 184:	92 95       	swap	r25
 186:	9f 70       	andi	r25, 0x0F	; 15
 188:	28 e1       	ldi	r18, 0x18	; 24
 18a:	92 9f       	mul	r25, r18
 18c:	80 19       	sub	r24, r0
 18e:	11 24       	eor	r1, r1
 190:	80 93 00 02 	sts	0x0200, r24	; 0x800200 <__data_start>
 194:	08 95       	ret

00000196 <PrintDec2d>:
	UART0_putchar(':');
	PrintDec2d(min);
	UART0_putchar(':');
	PrintDec2d(seg);
}
void PrintDec2d( BYTE dato){
 196:	cf 93       	push	r28
 198:	df 93       	push	r29
 19a:	d8 2f       	mov	r29, r24
	UART0_putchar( dato/10 +'0'); /* Imprime decenas */
 19c:	cd ec       	ldi	r28, 0xCD	; 205
 19e:	8c 9f       	mul	r24, r28
 1a0:	c1 2d       	mov	r28, r1
 1a2:	11 24       	eor	r1, r1
 1a4:	c6 95       	lsr	r28
 1a6:	c6 95       	lsr	r28
 1a8:	c6 95       	lsr	r28
 1aa:	80 e3       	ldi	r24, 0x30	; 48
 1ac:	8c 0f       	add	r24, r28
 1ae:	ab d0       	rcall	.+342    	; 0x306 <UART0_putchar>
	UART0_putchar( dato%10 +'0'); /* Imprime unidades */
 1b0:	cc 0f       	add	r28, r28
 1b2:	8c 2f       	mov	r24, r28
 1b4:	88 0f       	add	r24, r24
 1b6:	88 0f       	add	r24, r24
 1b8:	c8 0f       	add	r28, r24
 1ba:	8d 2f       	mov	r24, r29
 1bc:	8c 1b       	sub	r24, r28
 1be:	80 5d       	subi	r24, 0xD0	; 208
 1c0:	a2 d0       	rcall	.+324    	; 0x306 <UART0_putchar>
 1c2:	df 91       	pop	r29
 1c4:	cf 91       	pop	r28
 1c6:	08 95       	ret

000001c8 <Clock_Display>:
		}
	}
}
void Clock_Display( void ){
	/* imprimir reloj en formato "hh:mm:ss" */;
	UART0_putchar(10);
 1c8:	8a e0       	ldi	r24, 0x0A	; 10
	UART0_putchar(13);
 1ca:	9d d0       	rcall	.+314    	; 0x306 <UART0_putchar>
 1cc:	8d e0       	ldi	r24, 0x0D	; 13
	PrintDec2d(horas);
 1ce:	9b d0       	rcall	.+310    	; 0x306 <UART0_putchar>
 1d0:	80 91 00 02 	lds	r24, 0x0200	; 0x800200 <__data_start>
	UART0_putchar(':');
 1d4:	90 e0       	ldi	r25, 0x00	; 0
 1d6:	df df       	rcall	.-66     	; 0x196 <PrintDec2d>
	PrintDec2d(min);
 1d8:	8a e3       	ldi	r24, 0x3A	; 58
 1da:	95 d0       	rcall	.+298    	; 0x306 <UART0_putchar>
 1dc:	80 91 01 02 	lds	r24, 0x0201	; 0x800201 <min>
	UART0_putchar(':');
 1e0:	90 e0       	ldi	r25, 0x00	; 0
	PrintDec2d(seg);
 1e2:	d9 df       	rcall	.-78     	; 0x196 <PrintDec2d>
 1e4:	8a e3       	ldi	r24, 0x3A	; 58
 1e6:	8f d0       	rcall	.+286    	; 0x306 <UART0_putchar>
 1e8:	80 91 02 02 	lds	r24, 0x0202	; 0x800202 <seg>
 1ec:	90 e0       	ldi	r25, 0x00	; 0
 1ee:	d3 cf       	rjmp	.-90     	; 0x196 <PrintDec2d>
 1f0:	08 95       	ret

000001f2 <main>:
#include "Clock.h"


int main(void)
{
	UART0_Init(0);
 1f2:	80 e0       	ldi	r24, 0x00	; 0
 1f4:	90 e0       	ldi	r25, 0x00	; 0
	Timer2_Init(4);
 1f6:	6e d0       	rcall	.+220    	; 0x2d4 <UART0_Init>
 1f8:	84 e0       	ldi	r24, 0x04	; 4
	Clock_Ini(23,59,55);
 1fa:	05 d0       	rcall	.+10     	; 0x206 <Timer2_Init>
 1fc:	47 e3       	ldi	r20, 0x37	; 55
 1fe:	6b e3       	ldi	r22, 0x3B	; 59
 200:	87 e1       	ldi	r24, 0x17	; 23
 202:	8e df       	rcall	.-228    	; 0x120 <Clock_Ini>
 204:	ff cf       	rjmp	.-2      	; 0x204 <main+0x12>

00000206 <Timer2_Init>:
	4. To switch to asynchronous operation: Wait for TCN2UB, OCR2xUB, and TCR2xUB.
	5. Clear the Timer/Counter2 Interrupt Flags.
	6. Enable interrupts, if needed.
	*/
	
	TIMSK2 = 0;							//Clear a interrupciones timer2
 206:	10 92 70 00 	sts	0x0070, r1	; 0x800070 <__TEXT_REGION_LENGTH__+0x7e0070>
	ASSR = (1<<AS2);					//Clock externo seleccionado
 20a:	90 e2       	ldi	r25, 0x20	; 32
 20c:	90 93 b6 00 	sts	0x00B6, r25	; 0x8000b6 <__TEXT_REGION_LENGTH__+0x7e00b6>
	OCR2A = 256-1;						//TOP
 210:	9f ef       	ldi	r25, 0xFF	; 255
 212:	90 93 b3 00 	sts	0x00B3, r25	; 0x8000b3 <__TEXT_REGION_LENGTH__+0x7e00b3>
	TCNT2 = 0;							//Contador inicializado en 0
 216:	10 92 b2 00 	sts	0x00B2, r1	; 0x8000b2 <__TEXT_REGION_LENGTH__+0x7e00b2>
	TCCR2A = (1<<WGM21);					//CTC mode				
 21a:	92 e0       	ldi	r25, 0x02	; 2
 21c:	90 93 b0 00 	sts	0x00B0, r25	; 0x8000b0 <__TEXT_REGION_LENGTH__+0x7e00b0>
	TCCR2B = (5<<CS20);					// PS 128
 220:	95 e0       	ldi	r25, 0x05	; 5
 222:	90 93 b1 00 	sts	0x00B1, r25	; 0x8000b1 <__TEXT_REGION_LENGTH__+0x7e00b1>
	while( (ASSR&((1<<TCN2UB)|(1<<OCR2AUB)|(1<<OCR2BUB)|(1<<TCR2AUB)|(1<<TCR2BUB))) );
 226:	e6 eb       	ldi	r30, 0xB6	; 182
 228:	f0 e0       	ldi	r31, 0x00	; 0
 22a:	90 81       	ld	r25, Z
 22c:	9f 71       	andi	r25, 0x1F	; 31
 22e:	e9 f7       	brne	.-6      	; 0x22a <Timer2_Init+0x24>
	TIFR2 = (7<<TOV2);					//Se borran en alto las banderas de interrupcion
 230:	97 e0       	ldi	r25, 0x07	; 7
 232:	97 bb       	out	0x17, r25	; 23
	TIMSK2 = (1<<OCIE2A);				//Interrupt compare A enable
 234:	92 e0       	ldi	r25, 0x02	; 2
 236:	90 93 70 00 	sts	0x0070, r25	; 0x800070 <__TEXT_REGION_LENGTH__+0x7e0070>
	sei();								//habilita interrupciones (global) */
 23a:	78 94       	sei
	if((baseT>=1) && (baseT<=8))
 23c:	9f ef       	ldi	r25, 0xFF	; 255
 23e:	98 0f       	add	r25, r24
 240:	98 30       	cpi	r25, 0x08	; 8
 242:	18 f4       	brcc	.+6      	; 0x24a <Timer2_Init+0x44>
	{
		Flag = baseT;						//segundos a los cuales llegar	
 244:	80 93 35 02 	sts	0x0235, r24	; 0x800235 <Flag>
 248:	06 c0       	rjmp	.+12     	; 0x256 <Timer2_Init+0x50>
	}else
	{
		UART0_puts("\n\rSeg no permitidos, 1seg seleccionado default\n\r");
 24a:	83 e0       	ldi	r24, 0x03	; 3
 24c:	92 e0       	ldi	r25, 0x02	; 2
 24e:	63 d0       	rcall	.+198    	; 0x316 <UART0_puts>
		Flag = 1;
 250:	81 e0       	ldi	r24, 0x01	; 1
 252:	80 93 35 02 	sts	0x0235, r24	; 0x800235 <Flag>
	}
	base = 0;
 256:	10 92 34 02 	sts	0x0234, r1	; 0x800234 <__data_end>
 25a:	08 95       	ret

0000025c <Timer2_Flag>:
}
uint8_t Timer2_Flag ( void )
{
	if( Flag == base ){
 25c:	90 91 35 02 	lds	r25, 0x0235	; 0x800235 <Flag>
 260:	80 91 34 02 	lds	r24, 0x0234	; 0x800234 <__data_end>
 264:	98 13       	cpse	r25, r24
 266:	04 c0       	rjmp	.+8      	; 0x270 <Timer2_Flag+0x14>
		base = 0;
 268:	10 92 34 02 	sts	0x0234, r1	; 0x800234 <__data_end>
		return 1;
 26c:	81 e0       	ldi	r24, 0x01	; 1
 26e:	08 95       	ret
	}
	else{
	
		return 0;
 270:	80 e0       	ldi	r24, 0x00	; 0
	}
}
 272:	08 95       	ret

00000274 <__vector_13>:
ISR (TIMER2_COMPA_vect)
{ 
 274:	1f 92       	push	r1
 276:	0f 92       	push	r0
 278:	0f b6       	in	r0, 0x3f	; 63
 27a:	0f 92       	push	r0
 27c:	11 24       	eor	r1, r1
 27e:	0b b6       	in	r0, 0x3b	; 59
 280:	0f 92       	push	r0
 282:	2f 93       	push	r18
 284:	3f 93       	push	r19
 286:	4f 93       	push	r20
 288:	5f 93       	push	r21
 28a:	6f 93       	push	r22
 28c:	7f 93       	push	r23
 28e:	8f 93       	push	r24
 290:	9f 93       	push	r25
 292:	af 93       	push	r26
 294:	bf 93       	push	r27
 296:	ef 93       	push	r30
 298:	ff 93       	push	r31
	base++;
 29a:	80 91 34 02 	lds	r24, 0x0234	; 0x800234 <__data_end>
 29e:	8f 5f       	subi	r24, 0xFF	; 255
 2a0:	80 93 34 02 	sts	0x0234, r24	; 0x800234 <__data_end>
	if(Timer2_Flag())
	{
		Clock_Update();
 2a4:	db df       	rcall	.-74     	; 0x25c <Timer2_Flag>
		Clock_Display();
 2a6:	88 23       	and	r24, r24
 2a8:	11 f0       	breq	.+4      	; 0x2ae <__vector_13+0x3a>
	}
 2aa:	41 df       	rcall	.-382    	; 0x12e <Clock_Update>
 2ac:	8d df       	rcall	.-230    	; 0x1c8 <Clock_Display>
 2ae:	ff 91       	pop	r31
 2b0:	ef 91       	pop	r30
 2b2:	bf 91       	pop	r27
 2b4:	af 91       	pop	r26
 2b6:	9f 91       	pop	r25
 2b8:	8f 91       	pop	r24
 2ba:	7f 91       	pop	r23
 2bc:	6f 91       	pop	r22
 2be:	5f 91       	pop	r21
 2c0:	4f 91       	pop	r20
 2c2:	3f 91       	pop	r19
 2c4:	2f 91       	pop	r18
 2c6:	0f 90       	pop	r0
 2c8:	0b be       	out	0x3b, r0	; 59
 2ca:	0f 90       	pop	r0
 2cc:	0f be       	out	0x3f, r0	; 63
 2ce:	0f 90       	pop	r0
 2d0:	1f 90       	pop	r1
 2d2:	18 95       	reti

000002d4 <UART0_Init>:
			*str--='\0';
			i--;
		}
	}while(c != 13);
	*str = '\0';
}
 2d4:	22 e0       	ldi	r18, 0x02	; 2
 2d6:	20 93 c0 00 	sts	0x00C0, r18	; 0x8000c0 <__TEXT_REGION_LENGTH__+0x7e00c0>
 2da:	28 e1       	ldi	r18, 0x18	; 24
 2dc:	20 93 c1 00 	sts	0x00C1, r18	; 0x8000c1 <__TEXT_REGION_LENGTH__+0x7e00c1>
 2e0:	26 e0       	ldi	r18, 0x06	; 6
 2e2:	20 93 c2 00 	sts	0x00C2, r18	; 0x8000c2 <__TEXT_REGION_LENGTH__+0x7e00c2>
 2e6:	89 2b       	or	r24, r25
 2e8:	39 f4       	brne	.+14     	; 0x2f8 <UART0_Init+0x24>
 2ea:	8f ec       	ldi	r24, 0xCF	; 207
 2ec:	90 e0       	ldi	r25, 0x00	; 0
 2ee:	90 93 c5 00 	sts	0x00C5, r25	; 0x8000c5 <__TEXT_REGION_LENGTH__+0x7e00c5>
 2f2:	80 93 c4 00 	sts	0x00C4, r24	; 0x8000c4 <__TEXT_REGION_LENGTH__+0x7e00c4>
 2f6:	08 95       	ret
 2f8:	87 e6       	ldi	r24, 0x67	; 103
 2fa:	90 e0       	ldi	r25, 0x00	; 0
 2fc:	90 93 c5 00 	sts	0x00C5, r25	; 0x8000c5 <__TEXT_REGION_LENGTH__+0x7e00c5>
 300:	80 93 c4 00 	sts	0x00C4, r24	; 0x8000c4 <__TEXT_REGION_LENGTH__+0x7e00c4>
 304:	08 95       	ret

00000306 <UART0_putchar>:
 306:	e0 ec       	ldi	r30, 0xC0	; 192
 308:	f0 e0       	ldi	r31, 0x00	; 0
 30a:	90 81       	ld	r25, Z
 30c:	95 ff       	sbrs	r25, 5
 30e:	fd cf       	rjmp	.-6      	; 0x30a <UART0_putchar+0x4>
 310:	80 93 c6 00 	sts	0x00C6, r24	; 0x8000c6 <__TEXT_REGION_LENGTH__+0x7e00c6>
 314:	08 95       	ret

00000316 <UART0_puts>:
void UART0_puts(char *str)
{
 316:	cf 93       	push	r28
 318:	df 93       	push	r29
 31a:	ec 01       	movw	r28, r24
	while(*str)
 31c:	88 81       	ld	r24, Y
 31e:	88 23       	and	r24, r24
 320:	29 f0       	breq	.+10     	; 0x32c <UART0_puts+0x16>
	{
		UART0_putchar(*str++);
 322:	21 96       	adiw	r28, 0x01	; 1
	}while(c != 13);
	*str = '\0';
}
void UART0_puts(char *str)
{
	while(*str)
 324:	f0 df       	rcall	.-32     	; 0x306 <UART0_putchar>
 326:	89 91       	ld	r24, Y+
 328:	81 11       	cpse	r24, r1
	{
		UART0_putchar(*str++);
	}
}
 32a:	fc cf       	rjmp	.-8      	; 0x324 <UART0_puts+0xe>
 32c:	df 91       	pop	r29
 32e:	cf 91       	pop	r28
 330:	08 95       	ret

00000332 <_exit>:
 332:	f8 94       	cli

00000334 <__stop_program>:
 334:	ff cf       	rjmp	.-2      	; 0x334 <__stop_program>
